; ModuleID = '29/1973.c'
source_filename = "29/1973.c"
target datalayout = "e-m:e-p270:32:32-p271:32:32-p272:64:64-i64:64-f80:128-n8:16:32:64-S128"
target triple = "x86_64-pc-linux-gnu"

@.str = private unnamed_addr constant [3 x i8] c"%d\00", align 1
@.str.1 = private unnamed_addr constant [7 x i8] c"2.000\0A\00", align 1
@.str.2 = private unnamed_addr constant [6 x i8] c"%.3f\0A\00", align 1

; Function Attrs: noinline nounwind uwtable
define dso_local i32 @main() #0 {
  %1 = alloca i32, align 4
  %2 = alloca double, align 8
  %3 = alloca double, align 8
  %4 = alloca [100 x i32], align 16
  %5 = alloca [100 x i32], align 16
  %6 = alloca i32, align 4
  %7 = alloca i32, align 4
  %8 = alloca i32, align 4
  %9 = alloca i32, align 4
  store i32 0, i32* %1, align 4
  %10 = bitcast [100 x i32]* %4 to i8*
  call void @llvm.memset.p0i8.i64(i8* align 16 %10, i8 0, i64 400, i1 false)
  %11 = bitcast i8* %10 to <{ i32, i32, [98 x i32] }>*
  %12 = getelementptr inbounds <{ i32, i32, [98 x i32] }>, <{ i32, i32, [98 x i32] }>* %11, i32 0, i32 0
  store i32 2, i32* %12, align 16
  %13 = getelementptr inbounds <{ i32, i32, [98 x i32] }>, <{ i32, i32, [98 x i32] }>* %11, i32 0, i32 1
  store i32 3, i32* %13, align 4
  %14 = bitcast [100 x i32]* %5 to i8*
  call void @llvm.memset.p0i8.i64(i8* align 16 %14, i8 0, i64 400, i1 false)
  %15 = bitcast i8* %14 to <{ i32, i32, [98 x i32] }>*
  %16 = getelementptr inbounds <{ i32, i32, [98 x i32] }>, <{ i32, i32, [98 x i32] }>* %15, i32 0, i32 0
  store i32 1, i32* %16, align 16
  %17 = getelementptr inbounds <{ i32, i32, [98 x i32] }>, <{ i32, i32, [98 x i32] }>* %15, i32 0, i32 1
  store i32 2, i32* %17, align 4
  %18 = call i32 (i8*, ...) @__isoc99_scanf(i8* getelementptr inbounds ([3 x i8], [3 x i8]* @.str, i64 0, i64 0), i32* %8)
  store i32 0, i32* %6, align 4
  br label %19

19:                                               ; preds = %85, %0
  %20 = load i32, i32* %6, align 4
  %21 = load i32, i32* %8, align 4
  %22 = icmp slt i32 %20, %21
  br i1 %22, label %23, label %88

23:                                               ; preds = %19
  store double 3.500000e+00, double* %2, align 8
  %24 = call i32 (i8*, ...) @__isoc99_scanf(i8* getelementptr inbounds ([3 x i8], [3 x i8]* @.str, i64 0, i64 0), i32* %9)
  %25 = load i32, i32* %9, align 4
  %26 = icmp eq i32 %25, 1
  br i1 %26, label %27, label %29

27:                                               ; preds = %23
  %28 = call i32 (i8*, ...) @printf(i8* getelementptr inbounds ([7 x i8], [7 x i8]* @.str.1, i64 0, i64 0))
  br label %84

29:                                               ; preds = %23
  store i32 2, i32* %7, align 4
  br label %30

30:                                               ; preds = %78, %29
  %31 = load i32, i32* %7, align 4
  %32 = load i32, i32* %9, align 4
  %33 = icmp slt i32 %31, %32
  br i1 %33, label %34, label %81

34:                                               ; preds = %30
  %35 = load i32, i32* %7, align 4
  %36 = sub nsw i32 %35, 1
  %37 = sext i32 %36 to i64
  %38 = getelementptr inbounds [100 x i32], [100 x i32]* %4, i64 0, i64 %37
  %39 = load i32, i32* %38, align 4
  %40 = load i32, i32* %7, align 4
  %41 = sub nsw i32 %40, 2
  %42 = sext i32 %41 to i64
  %43 = getelementptr inbounds [100 x i32], [100 x i32]* %4, i64 0, i64 %42
  %44 = load i32, i32* %43, align 4
  %45 = add nsw i32 %39, %44
  %46 = load i32, i32* %7, align 4
  %47 = sext i32 %46 to i64
  %48 = getelementptr inbounds [100 x i32], [100 x i32]* %4, i64 0, i64 %47
  store i32 %45, i32* %48, align 4
  %49 = load i32, i32* %7, align 4
  %50 = sub nsw i32 %49, 1
  %51 = sext i32 %50 to i64
  %52 = getelementptr inbounds [100 x i32], [100 x i32]* %5, i64 0, i64 %51
  %53 = load i32, i32* %52, align 4
  %54 = load i32, i32* %7, align 4
  %55 = sub nsw i32 %54, 2
  %56 = sext i32 %55 to i64
  %57 = getelementptr inbounds [100 x i32], [100 x i32]* %5, i64 0, i64 %56
  %58 = load i32, i32* %57, align 4
  %59 = add nsw i32 %53, %58
  %60 = load i32, i32* %7, align 4
  %61 = sext i32 %60 to i64
  %62 = getelementptr inbounds [100 x i32], [100 x i32]* %5, i64 0, i64 %61
  store i32 %59, i32* %62, align 4
  %63 = load i32, i32* %7, align 4
  %64 = sext i32 %63 to i64
  %65 = getelementptr inbounds [100 x i32], [100 x i32]* %4, i64 0, i64 %64
  %66 = load i32, i32* %65, align 4
  %67 = sitofp i32 %66 to double
  %68 = fmul double %67, 1.000000e+00
  %69 = load i32, i32* %7, align 4
  %70 = sext i32 %69 to i64
  %71 = getelementptr inbounds [100 x i32], [100 x i32]* %5, i64 0, i64 %70
  %72 = load i32, i32* %71, align 4
  %73 = sitofp i32 %72 to double
  %74 = fdiv double %68, %73
  store double %74, double* %3, align 8
  %75 = load double, double* %3, align 8
  %76 = load double, double* %2, align 8
  %77 = fadd double %76, %75
  store double %77, double* %2, align 8
  br label %78

78:                                               ; preds = %34
  %79 = load i32, i32* %7, align 4
  %80 = add nsw i32 %79, 1
  store i32 %80, i32* %7, align 4
  br label %30

81:                                               ; preds = %30
  %82 = load double, double* %2, align 8
  %83 = call i32 (i8*, ...) @printf(i8* getelementptr inbounds ([6 x i8], [6 x i8]* @.str.2, i64 0, i64 0), double %82)
  br label %84

84:                                               ; preds = %81, %27
  br label %85

85:                                               ; preds = %84
  %86 = load i32, i32* %6, align 4
  %87 = add nsw i32 %86, 1
  store i32 %87, i32* %6, align 4
  br label %19

88:                                               ; preds = %19
  ret i32 0
}

; Function Attrs: argmemonly nounwind willreturn
declare void @llvm.memset.p0i8.i64(i8* nocapture writeonly, i8, i64, i1 immarg) #1

declare dso_local i32 @__isoc99_scanf(i8*, ...) #2

declare dso_local i32 @printf(i8*, ...) #2


!llvm.module.flags = !{!0}
!llvm.ident = !{!1}

!0 = !{i32 1, !"wchar_size", i32 4}
!1 = !{!"clang version 10.0.0-4ubuntu1 "}
