; ModuleID = 'source-C-CXX/28/1973.c'
source_filename = "source-C-CXX/28/1973.c"
target datalayout = "e-m:e-p270:32:32-p271:32:32-p272:64:64-i64:64-f80:128-n8:16:32:64-S128"
target triple = "x86_64-pc-linux-gnu"

@.str = private unnamed_addr constant [3 x i8] c"%d\00", align 1
@.str.2 = private unnamed_addr constant [6 x i8] c"%.3f\0A\00", align 1
@str = private unnamed_addr constant [6 x i8] c"2.000\00", align 1

; Function Attrs: nofree nounwind sspstrong uwtable
define dso_local i32 @main() local_unnamed_addr #0 {
  %1 = alloca [100 x i32], align 16
  %2 = alloca [100 x i32], align 16
  %3 = alloca i32, align 4
  %4 = alloca i32, align 4
  %5 = bitcast [100 x i32]* %1 to i8*
  call void @llvm.lifetime.start.p0i8(i64 400, i8* nonnull %5) #5
  call void @llvm.memset.p0i8.i64(i8* noundef nonnull align 16 dereferenceable(400) %5, i8 0, i64 400, i1 false)
  %6 = getelementptr inbounds [100 x i32], [100 x i32]* %1, i64 0, i64 0
  store i32 2, i32* %6, align 16
  %7 = getelementptr inbounds [100 x i32], [100 x i32]* %1, i64 0, i64 1
  store i32 3, i32* %7, align 4
  %8 = bitcast [100 x i32]* %2 to i8*
  call void @llvm.lifetime.start.p0i8(i64 400, i8* nonnull %8) #5
  call void @llvm.memset.p0i8.i64(i8* noundef nonnull align 16 dereferenceable(400) %8, i8 0, i64 400, i1 false)
  %9 = getelementptr inbounds [100 x i32], [100 x i32]* %2, i64 0, i64 0
  store i32 1, i32* %9, align 16
  %10 = getelementptr inbounds [100 x i32], [100 x i32]* %2, i64 0, i64 1
  store i32 2, i32* %10, align 4
  %11 = bitcast i32* %3 to i8*
  call void @llvm.lifetime.start.p0i8(i64 4, i8* nonnull %11) #5
  %12 = bitcast i32* %4 to i8*
  call void @llvm.lifetime.start.p0i8(i64 4, i8* nonnull %12) #5
  %13 = call i32 (i8*, ...) @__isoc99_scanf(i8* getelementptr inbounds ([3 x i8], [3 x i8]* @.str, i64 0, i64 0), i32* nonnull %3)
  %14 = load i32, i32* %3, align 4, !tbaa !5
  %15 = icmp sgt i32 %14, 0
  br i1 %15, label %16, label %56

16:                                               ; preds = %0, %52
  %17 = phi i32 [ %53, %52 ], [ 0, %0 ]
  %18 = call i32 (i8*, ...) @__isoc99_scanf(i8* getelementptr inbounds ([3 x i8], [3 x i8]* @.str, i64 0, i64 0), i32* nonnull %4)
  %19 = load i32, i32* %4, align 4, !tbaa !5
  %20 = icmp eq i32 %19, 1
  br i1 %20, label %27, label %21

21:                                               ; preds = %16
  %22 = icmp sgt i32 %19, 2
  br i1 %22, label %23, label %49

23:                                               ; preds = %21
  %24 = zext i32 %19 to i64
  %25 = load i32, i32* %7, align 4, !tbaa !5
  %26 = load i32, i32* %10, align 4, !tbaa !5
  br label %29

27:                                               ; preds = %16
  %28 = call i32 @puts(i8* nonnull dereferenceable(1) getelementptr inbounds ([6 x i8], [6 x i8]* @str, i64 0, i64 0))
  br label %52

29:                                               ; preds = %23, %29
  %30 = phi i32 [ %26, %23 ], [ %41, %29 ]
  %31 = phi i32 [ %25, %23 ], [ %37, %29 ]
  %32 = phi i64 [ 2, %23 ], [ %47, %29 ]
  %33 = phi double [ 3.500000e+00, %23 ], [ %46, %29 ]
  %34 = add nsw i64 %32, -2
  %35 = getelementptr inbounds [100 x i32], [100 x i32]* %1, i64 0, i64 %34
  %36 = load i32, i32* %35, align 4, !tbaa !5
  %37 = add nsw i32 %36, %31
  %38 = getelementptr inbounds [100 x i32], [100 x i32]* %1, i64 0, i64 %32
  store i32 %37, i32* %38, align 4, !tbaa !5
  %39 = getelementptr inbounds [100 x i32], [100 x i32]* %2, i64 0, i64 %34
  %40 = load i32, i32* %39, align 4, !tbaa !5
  %41 = add nsw i32 %40, %30
  %42 = getelementptr inbounds [100 x i32], [100 x i32]* %2, i64 0, i64 %32
  store i32 %41, i32* %42, align 4, !tbaa !5
  %43 = sitofp i32 %37 to double
  %44 = sitofp i32 %41 to double
  %45 = fdiv double %43, %44
  %46 = fadd double %33, %45
  %47 = add nuw nsw i64 %32, 1
  %48 = icmp eq i64 %47, %24
  br i1 %48, label %49, label %29, !llvm.loop !9

49:                                               ; preds = %29, %21
  %50 = phi double [ 3.500000e+00, %21 ], [ %46, %29 ]
  %51 = call i32 (i8*, ...) @printf(i8* nonnull dereferenceable(1) getelementptr inbounds ([6 x i8], [6 x i8]* @.str.2, i64 0, i64 0), double %50)
  br label %52

52:                                               ; preds = %27, %49
  %53 = add nuw nsw i32 %17, 1
  %54 = load i32, i32* %3, align 4, !tbaa !5
  %55 = icmp slt i32 %53, %54
  br i1 %55, label %16, label %56, !llvm.loop !11

56:                                               ; preds = %52, %0
  call void @llvm.lifetime.end.p0i8(i64 4, i8* nonnull %12) #5
  call void @llvm.lifetime.end.p0i8(i64 4, i8* nonnull %11) #5
  call void @llvm.lifetime.end.p0i8(i64 400, i8* nonnull %8) #5
  call void @llvm.lifetime.end.p0i8(i64 400, i8* nonnull %5) #5
  ret i32 0
}

; Function Attrs: argmemonly mustprogress nofree nosync nounwind willreturn
declare void @llvm.lifetime.start.p0i8(i64 immarg, i8* nocapture) #1

; Function Attrs: argmemonly mustprogress nofree nounwind willreturn writeonly
declare void @llvm.memset.p0i8.i64(i8* nocapture writeonly, i8, i64, i1 immarg) #2

; Function Attrs: nofree nounwind
declare noundef i32 @__isoc99_scanf(i8* nocapture noundef readonly, ...) local_unnamed_addr #3

; Function Attrs: nofree nounwind
declare noundef i32 @printf(i8* nocapture noundef readonly, ...) local_unnamed_addr #3

; Function Attrs: argmemonly mustprogress nofree nosync nounwind willreturn
declare void @llvm.lifetime.end.p0i8(i64 immarg, i8* nocapture) #1

; Function Attrs: nofree nounwind
declare noundef i32 @puts(i8* nocapture noundef readonly) local_unnamed_addr #4


!llvm.module.flags = !{!0, !1, !2, !3}
!llvm.ident = !{!4}

!0 = !{i32 1, !"wchar_size", i32 4}
!1 = !{i32 7, !"PIC Level", i32 2}
!2 = !{i32 7, !"PIE Level", i32 2}
!3 = !{i32 7, !"uwtable", i32 1}
!4 = !{!"clang version 13.0.0"}
!5 = !{!6, !6, i64 0}
!6 = !{!"int", !7, i64 0}
!7 = !{!"omnipotent char", !8, i64 0}
!8 = !{!"Simple C/C++ TBAA"}
!9 = distinct !{!9, !10}
!10 = !{!"llvm.loop.mustprogress"}
!11 = distinct !{!11, !10}
